target datalayout = "e-m:e-p270:32:32-p271:32:32-p272:64:64-i64:64-i128:128-f80:128-n8:16:32:64-S128"
target triple = "x86_64-pc-linux-gnu"

%struct.reserve_info_msg = type { i64, i32, ptr }

@old_res_info_ptr = external global ptr, align 8
@quiet_flag = external global i32, align 4
@.str = private unnamed_addr constant [44 x i8] c"slurm_load_reservations: no change in data\0A\00", align 1

; Function Attrs: nounwind uwtable
define dso_local i32 @scontrol_load_reservations(ptr noundef %0) #0 {
  %2 = alloca ptr, align 8
  %3 = alloca i32, align 4
  %4 = alloca ptr, align 8
  store ptr %0, ptr %2, align 8
  call void @llvm.lifetime.start.p0(i64 4, ptr %3) #6
  call void @llvm.lifetime.start.p0(i64 8, ptr %4) #6
  store ptr null, ptr %4, align 8
  %5 = load ptr, ptr @old_res_info_ptr, align 8
  %6 = icmp ne ptr %5, null
  br i1 %6, label %7, label %29

7:                                                ; preds = %1
  %8 = load ptr, ptr @old_res_info_ptr, align 8
  %9 = getelementptr inbounds nuw %struct.reserve_info_msg, ptr %8, i32 0, i32 0
  %10 = load i64, ptr %9, align 8
  %11 = call i32 @slurm_load_reservations(i64 noundef %10, ptr noundef %4)
  store i32 %11, ptr %3, align 4
  %12 = load i32, ptr %3, align 4
  %13 = icmp eq i32 %12, 0
  br i1 %13, label %14, label %16

14:                                               ; preds = %7
  %15 = load ptr, ptr @old_res_info_ptr, align 8
  call void @slurm_free_reservation_info_msg(ptr noundef %15)
  br label %28

16:                                               ; preds = %7
  %17 = call ptr @__errno_location() #7
  %18 = load i32, ptr %17, align 4
  %19 = icmp eq i32 %18, 1900
  br i1 %19, label %20, label %27

20:                                               ; preds = %16
  %21 = load ptr, ptr @old_res_info_ptr, align 8
  store ptr %21, ptr %4, align 8
  store i32 0, ptr %3, align 4
  %22 = load i32, ptr @quiet_flag, align 4
  %23 = icmp eq i32 %22, -1
  br i1 %23, label %24, label %26

24:                                               ; preds = %20
  %25 = call i32 (ptr, ...) @printf(ptr noundef @.str)
  br label %26

26:                                               ; preds = %24, %20
  br label %27

27:                                               ; preds = %26, %16
  br label %28

28:                                               ; preds = %27, %14
  br label %31

29:                                               ; preds = %1
  %30 = call i32 @slurm_load_reservations(i64 noundef 0, ptr noundef %4)
  store i32 %30, ptr %3, align 4
  br label %31

31:                                               ; preds = %29, %28
  %32 = load i32, ptr %3, align 4
  %33 = icmp eq i32 %32, 0
  br i1 %33, label %34, label %38

34:                                               ; preds = %31
  %35 = load ptr, ptr %4, align 8
  store ptr %35, ptr @old_res_info_ptr, align 8
  %36 = load ptr, ptr %4, align 8
  %37 = load ptr, ptr %2, align 8
  store ptr %36, ptr %37, align 8
  br label %38

38:                                               ; preds = %34, %31
  %39 = load i32, ptr %3, align 4
  call void @llvm.lifetime.end.p0(i64 8, ptr %4) #6
  call void @llvm.lifetime.end.p0(i64 4, ptr %3) #6
  ret i32 %39
}