; Function Attrs: nounwind uwtable
define dso_local i32 @scontrol_load_reservations(ptr noundef writeonly captures(none) %0) local_unnamed_addr #0 {
  %2 = alloca ptr, align 8
  call void @llvm.lifetime.start.p0(i64 8, ptr nonnull %2) #7
  store ptr null, ptr %2, align 8
  %3 = load ptr, ptr @old_res_info_ptr, align 8
  %.not = icmp eq ptr %3, null
  br i1 %.not, label %19, label %4

4:                                                ; preds = %1
  %5 = load i64, ptr %3, align 8
  %6 = call i32 @slurm_load_reservations(i64 noundef %5, ptr noundef nonnull %2) #7
  %7 = icmp eq i32 %6, 0
  br i1 %7, label %8, label %10

8:                                                ; preds = %4
  %9 = load ptr, ptr @old_res_info_ptr, align 8
  call void @slurm_free_reservation_info_msg(ptr noundef %9) #7
  br label %.thread

10:                                               ; preds = %4
  %11 = tail call ptr @__errno_location() #8
  %12 = load i32, ptr %11, align 4
  %13 = icmp eq i32 %12, 1900
  br i1 %13, label %14, label %.thread8

14:                                               ; preds = %10
  %15 = load ptr, ptr @old_res_info_ptr, align 8
  store ptr %15, ptr %2, align 8
  %16 = load i32, ptr @quiet_flag, align 4
  %17 = icmp eq i32 %16, -1
  br i1 %17, label %18, label %.thread

18:                                               ; preds = %14
  %puts = call i32 @puts(ptr nonnull dereferenceable(1) @str)
  br label %.thread

19:                                               ; preds = %1
  %20 = call i32 @slurm_load_reservations(i64 noundef 0, ptr noundef nonnull %2) #7
  %21 = icmp eq i32 %20, 0
  br i1 %21, label %.thread, label %.thread8

.thread:                                          ; preds = %14, %18, %8, %19
  %22 = load ptr, ptr %2, align 8
  store ptr %22, ptr @old_res_info_ptr, align 8
  store ptr %22, ptr %0, align 8
  br label %.thread8

.thread8:                                         ; preds = %10, %.thread, %19
  %.06 = phi i32 [ 0, %.thread ], [ %20, %19 ], [ %6, %10 ]
  call void @llvm.lifetime.end.p0(i64 8, ptr nonnull %2) #7
  ret i32 %.06
}